; Function Attrs: mustprogress nounwind uwtable
define void @_ZN3gmx29PositionCalculationCollection4ImplD2Ev(ptr noundef nonnull readonly align 8 captures(none) dereferenceable(80) %0) unnamed_addr #3 align 2 personality ptr @__gxx_personality_v0 {
  %2 = getelementptr inbounds nuw i8, ptr %0, i64 16
  %3 = load ptr, ptr %2, align 8, !tbaa !48
  %.not5 = icmp eq ptr %3, null
  br i1 %.not5, label %._crit_edge, label %.lr.ph

.lr.ph:                                           ; preds = %1, %11
  %4 = phi ptr [ %12, %11 ], [ %3, %1 ]
  %5 = getelementptr inbounds nuw i8, ptr %4, i64 128
  %6 = load i32, ptr %5, align 8, !tbaa !58
  %.not2 = icmp eq i32 %6, 1
  br i1 %.not2, label %10, label %7

7:                                                ; preds = %.lr.ph
  %8 = load ptr, ptr @stderr, align 8, !tbaa !65
  %9 = tail call i32 (ptr, ptr, ...) @fprintf(ptr noundef %8, ptr noundef nonnull @.str.20, i32 noundef %6) #32
  br label %11

10:                                               ; preds = %.lr.ph
  invoke void @_Z20gmx_ana_poscalc_freeP17gmx_ana_poscalc_t(ptr noundef nonnull %4)
          to label %11 unwind label %29

11:                                               ; preds = %10, %7
  %12 = load ptr, ptr %2, align 8, !tbaa !48
  %.not = icmp eq ptr %12, null
  br i1 %.not, label %._crit_edge, label %.lr.ph, !llvm.loop !67

._crit_edge:                                      ; preds = %11, %1
  %13 = getelementptr inbounds nuw i8, ptr %0, i64 56
  %14 = load ptr, ptr %13, align 8, !tbaa !68
  %.not.i.i.i = icmp eq ptr %14, null
  br i1 %.not.i.i.i, label %_ZNSt6vectorIiSaIiEED2Ev.exit, label %15

15:                                               ; preds = %._crit_edge
  %16 = getelementptr inbounds nuw i8, ptr %0, i64 72
  %17 = load ptr, ptr %16, align 8, !tbaa !69
  %18 = ptrtoint ptr %17 to i64
  %19 = ptrtoint ptr %14 to i64
  %20 = sub i64 %18, %19
  tail call void @_ZdlPvm(ptr noundef nonnull %14, i64 noundef %20) #30
  br label %_ZNSt6vectorIiSaIiEED2Ev.exit

_ZNSt6vectorIiSaIiEED2Ev.exit:                    ; preds = %._crit_edge, %15
  %21 = getelementptr inbounds nuw i8, ptr %0, i64 32
  %22 = load ptr, ptr %21, align 8, !tbaa !68
  %.not.i.i.i3 = icmp eq ptr %22, null
  br i1 %.not.i.i.i3, label %_ZNSt6vectorIiSaIiEED2Ev.exit4, label %23

23:                                               ; preds = %_ZNSt6vectorIiSaIiEED2Ev.exit
  %24 = getelementptr inbounds nuw i8, ptr %0, i64 48
  %25 = load ptr, ptr %24, align 8, !tbaa !69
  %26 = ptrtoint ptr %25 to i64
  %27 = ptrtoint ptr %22 to i64
  %28 = sub i64 %26, %27
  tail call void @_ZdlPvm(ptr noundef nonnull %22, i64 noundef %28) #30
  br label %_ZNSt6vectorIiSaIiEED2Ev.exit4

_ZNSt6vectorIiSaIiEED2Ev.exit4:                   ; preds = %_ZNSt6vectorIiSaIiEED2Ev.exit, %23
  ret void

29:                                               ; preds = %10
  %30 = landingpad { ptr, i32 }
          catch ptr null
  %31 = extractvalue { ptr, i32 } %30, 0
  tail call void @__clang_call_terminate(ptr %31) #31
  unreachable
}